; Function Attrs: nounwind sspstrong uwtable
define internal void @usb_ehci_pci_init(ptr noundef %obj) #0 {
entry:
  %call.i = tail call ptr @object_get_class(ptr noundef %obj) #4
  %call1.i = tail call ptr @object_class_dynamic_cast_assert(ptr noundef %call.i, ptr noundef nonnull @.str.3, ptr noundef nonnull @.str.4, i32 noundef 77, ptr noundef nonnull @__func__.DEVICE_GET_CLASS) #4
  %call.i9 = tail call ptr @object_dynamic_cast_assert(ptr noundef %obj, ptr noundef nonnull @.str, ptr noundef nonnull @.str.6, i32 noundef 331, ptr noundef nonnull @__func__.PCI_EHCI) #4
  %arrayidx = getelementptr i8, ptr %call.i9, i64 3949
  store i8 104, ptr %arrayidx, align 1
  %capsbase = getelementptr inbounds nuw i8, ptr %call.i9, i64 3926
  store i16 0, ptr %capsbase, align 2
  %opregbase = getelementptr inbounds nuw i8, ptr %call.i9, i64 3928
  store i16 32, ptr %opregbase, align 8
  %portscbase = getelementptr inbounds nuw i8, ptr %call.i9, i64 3930
  store i16 68, ptr %portscbase, align 2
  %portnr = getelementptr inbounds nuw i8, ptr %call.i9, i64 3932
  store i16 6, ptr %portnr, align 4
  %hotpluggable = getelementptr inbounds nuw i8, ptr %call1.i, i64 129
  %0 = load i8, ptr %hotpluggable, align 1
  %tobool = trunc i8 %0 to i1
  br i1 %tobool, label %if.end, label %if.then

if.then:                                          ; preds = %entry
  %companion_enable = getelementptr inbounds nuw i8, ptr %call.i9, i64 3924
  store i8 1, ptr %companion_enable, align 4
  br label %if.end

if.end:                                           ; preds = %if.then, %entry
  %ehci = getelementptr inbounds nuw i8, ptr %call.i9, i64 2608
  %call.i10 = tail call ptr @object_dynamic_cast_assert(ptr noundef %obj, ptr noundef nonnull @.str.3, ptr noundef nonnull @.str.4, i32 noundef 77, ptr noundef nonnull @__func__.DEVICE) #4
  tail call void @usb_ehci_init(ptr noundef nonnull %ehci, ptr noundef %call.i10) #4
  ret void
}